; Function Attrs: nounwind uwtable
define internal i32 @pmix_pgpu_open(i32 noundef %0) #1 {
  %2 = load i32, ptr @pmix_class_init_epoch, align 4, !tbaa !3
  %3 = load i32, ptr getelementptr inbounds nuw (i8, ptr @pmix_list_t_class, i64 32), align 8, !tbaa !7
  %.not = icmp eq i32 %2, %3
  br i1 %.not, label %5, label %4

4:                                                ; preds = %1
  tail call void @pmix_class_initialize(ptr noundef nonnull @pmix_list_t_class) #8
  br label %5

5:                                                ; preds = %4, %1
  store ptr @pmix_list_t_class, ptr getelementptr inbounds nuw (i8, ptr @pmix_pgpu_globals, i64 40), align 8, !tbaa !13
  store i32 1, ptr getelementptr inbounds nuw (i8, ptr @pmix_pgpu_globals, i64 48), align 8, !tbaa !16
  tail call void @llvm.memset.p0.i64(ptr noundef nonnull align 8 dereferenceable(64) getelementptr inbounds nuw (i8, ptr @pmix_pgpu_globals, i64 56), i8 0, i64 64, i1 false)
  %6 = load ptr, ptr getelementptr inbounds nuw (i8, ptr @pmix_list_t_class, i64 40), align 8, !tbaa !17
  %7 = load ptr, ptr %6, align 8, !tbaa !18
  %.not6.i = icmp eq ptr %7, null
  br i1 %.not6.i, label %pmix_obj_run_constructors.exit, label %.lr.ph.i

.lr.ph.i:                                         ; preds = %5, %.lr.ph.i
  %8 = phi ptr [ %10, %.lr.ph.i ], [ %7, %5 ]
  %.07.i = phi ptr [ %9, %.lr.ph.i ], [ %6, %5 ]
  tail call void %8(ptr noundef nonnull @pmix_pgpu_globals) #8
  %9 = getelementptr inbounds nuw i8, ptr %.07.i, i64 8
  %10 = load ptr, ptr %9, align 8, !tbaa !18
  %.not.i = icmp eq ptr %10, null
  br i1 %.not.i, label %pmix_obj_run_constructors.exit, label %.lr.ph.i, !llvm.loop !19

pmix_obj_run_constructors.exit:                   ; preds = %.lr.ph.i, %5
  %11 = load i32, ptr @pmix_class_init_epoch, align 4, !tbaa !3
  %12 = load i32, ptr getelementptr inbounds nuw (i8, ptr @pmix_list_t_class, i64 32), align 8, !tbaa !7
  %.not1 = icmp eq i32 %11, %12
  br i1 %.not1, label %14, label %13

13:                                               ; preds = %pmix_obj_run_constructors.exit
  tail call void @pmix_class_initialize(ptr noundef nonnull @pmix_list_t_class) #8
  br label %14

14:                                               ; preds = %13, %pmix_obj_run_constructors.exit
  store ptr @pmix_list_t_class, ptr getelementptr inbounds nuw (i8, ptr @pmix_pgpu_globals, i64 312), align 8, !tbaa !13
  store i32 1, ptr getelementptr inbounds nuw (i8, ptr @pmix_pgpu_globals, i64 320), align 8, !tbaa !16
  tail call void @llvm.memset.p0.i64(ptr noundef nonnull align 8 dereferenceable(64) getelementptr inbounds nuw (i8, ptr @pmix_pgpu_globals, i64 328), i8 0, i64 64, i1 false)
  %15 = load ptr, ptr getelementptr inbounds nuw (i8, ptr @pmix_list_t_class, i64 40), align 8, !tbaa !17
  %16 = load ptr, ptr %15, align 8, !tbaa !18
  %.not6.i2 = icmp eq ptr %16, null
  br i1 %.not6.i2, label %pmix_obj_run_constructors.exit6, label %.lr.ph.i3

.lr.ph.i3:                                        ; preds = %14, %.lr.ph.i3
  %17 = phi ptr [ %19, %.lr.ph.i3 ], [ %16, %14 ]
  %.07.i4 = phi ptr [ %18, %.lr.ph.i3 ], [ %15, %14 ]
  tail call void %17(ptr noundef nonnull getelementptr inbounds nuw (i8, ptr @pmix_pgpu_globals, i64 272)) #8
  %18 = getelementptr inbounds nuw i8, ptr %.07.i4, i64 8
  %19 = load ptr, ptr %18, align 8, !tbaa !18
  %.not.i5 = icmp eq ptr %19, null
  br i1 %.not.i5, label %pmix_obj_run_constructors.exit6, label %.lr.ph.i3, !llvm.loop !19

pmix_obj_run_constructors.exit6:                  ; preds = %.lr.ph.i3, %14
  %20 = tail call i32 @pmix_mca_base_framework_components_open(ptr noundef nonnull @pmix_pgpu_base_framework, i32 noundef %0) #8
  ret i32 %20
}